target datalayout = "e-m:e-p270:32:32-p271:32:32-p272:64:64-i64:64-i128:128-f80:128-n8:16:32:64-S128"
target triple = "x86_64-pc-linux-gnu"

%union.pthread_mutex_t = type { %struct.__pthread_mutex_s }
%struct.__pthread_mutex_s = type { i32, i32, i32, i32, i32, i16, i16, %struct.__pthread_internal_list }
%struct.__pthread_internal_list = type { ptr, ptr }
%struct.wolfSSL_RefWithMutex = type { %union.pthread_mutex_t, i32 }
%struct.WOLFSSL_CTX = type <{ ptr, %struct.wolfSSL_RefWithMutex, i32, [4 x i8], %struct.WOLFSSL_BUFFER_INFO, %struct.WOLFSSL_BUFFER_INFO, ptr, ptr, i32, [4 x i8], ptr, i8, i8, [2 x i8], i32, i32, [4 x i8], ptr, ptr, ptr, i8, i16, i8, i8, i8, i16, i16, i16, i16, [2 x i8], i64, ptr, ptr, ptr, ptr, i32, i32, i16, [2 x i8], i32, [10 x i16], i8, [3 x i8], ptr, ptr, i32, [4 x i8], ptr, i8, [7 x i8] }>
%struct.WOLFSSL_BUFFER_INFO = type { ptr, i32 }
%struct.DecodedCert = type { ptr, i32, i32, i32, i32, i32, i32, i32, i32, i32, i32, ptr, ptr, ptr, ptr, ptr, [20 x i8], [20 x i8], ptr, ptr, i32, i8, [256 x i8], [256 x i8], i32, ptr, i32, i32, ptr, [32 x i8], i32, ptr, i32, i32, ptr, i32, ptr, i32, ptr, i32, [20 x i8], i32, [20 x i8], i32, i8, i8, i8, i16, i8, i32, ptr, i32, ptr, i32, ptr, i32, ptr, i32, i8, ptr, %struct.SignatureCtx, i32, i32, i32 }
%struct.SignatureCtx = type { ptr, ptr, ptr, ptr, i32, %union.anon, i32, i32, i32, i32, i32, i32, i32, i32 }
%union.anon = type { ptr }
%struct.DerBuffer = type { ptr, ptr, i32, i32, i32 }

; Function Attrs: nounwind uwtable
define internal i32 @check_cert_key(ptr noundef %0, ptr noundef %1, ptr noundef %2, ptr noundef %3, i32 noundef %4, i32 noundef %5, i32 noundef %6, i32 noundef %7, i32 noundef %8, i32 noundef %9) #0 {
  %11 = alloca i32, align 4
  %12 = alloca ptr, align 8
  %13 = alloca ptr, align 8
  %14 = alloca ptr, align 8
  %15 = alloca ptr, align 8
  %16 = alloca i32, align 4
  %17 = alloca i32, align 4
  %18 = alloca i32, align 4
  %19 = alloca i32, align 4
  %20 = alloca i32, align 4
  %21 = alloca i32, align 4
  %22 = alloca [1 x %struct.DecodedCert], align 16
  %23 = alloca i32, align 4
  %24 = alloca ptr, align 8
  %25 = alloca i32, align 4
  %26 = alloca i32, align 4
  store ptr %0, ptr %12, align 8, !tbaa !37
  store ptr %1, ptr %13, align 8, !tbaa !37
  store ptr %2, ptr %14, align 8, !tbaa !37
  store ptr %3, ptr %15, align 8, !tbaa !3
  store i32 %4, ptr %16, align 4, !tbaa !7
  store i32 %5, ptr %17, align 4, !tbaa !7
  store i32 %6, ptr %18, align 4, !tbaa !7
  store i32 %7, ptr %19, align 4, !tbaa !7
  store i32 %8, ptr %20, align 4, !tbaa !7
  store i32 %9, ptr %21, align 4, !tbaa !7
  call void @llvm.lifetime.start.p0(i64 1024, ptr %22) #9
  call void @llvm.lifetime.start.p0(i64 4, ptr %23) #9
  call void @llvm.lifetime.start.p0(i64 8, ptr %24) #9
  call void @llvm.lifetime.start.p0(i64 4, ptr %25) #9
  store i32 0, ptr %25, align 4, !tbaa !7
  br label %27

27:                                               ; preds = %10
  br label %28

28:                                               ; preds = %27
  br label %29

29:                                               ; preds = %28
  %30 = load ptr, ptr %12, align 8, !tbaa !37
  %31 = icmp eq ptr %30, null
  br i1 %31, label %35, label %32

32:                                               ; preds = %29
  %33 = load ptr, ptr %13, align 8, !tbaa !37
  %34 = icmp eq ptr %33, null
  br i1 %34, label %35, label %36

35:                                               ; preds = %32, %29
  store i32 0, ptr %11, align 4
  store i32 1, ptr %26, align 4
  br label %70

36:                                               ; preds = %32
  %37 = load ptr, ptr %12, align 8, !tbaa !37
  %38 = getelementptr inbounds nuw %struct.DerBuffer, ptr %37, i32 0, i32 2
  %39 = load i32, ptr %38, align 8, !tbaa !40
  store i32 %39, ptr %23, align 4, !tbaa !7
  %40 = load ptr, ptr %12, align 8, !tbaa !37
  %41 = getelementptr inbounds nuw %struct.DerBuffer, ptr %40, i32 0, i32 0
  %42 = load ptr, ptr %41, align 8, !tbaa !38
  store ptr %42, ptr %24, align 8, !tbaa !21
  %43 = getelementptr inbounds [1 x %struct.DecodedCert], ptr %22, i64 0, i64 0
  %44 = load ptr, ptr %24, align 8, !tbaa !21
  %45 = load i32, ptr %23, align 4, !tbaa !7
  %46 = load ptr, ptr %15, align 8, !tbaa !3
  %47 = load i32, ptr %16, align 4, !tbaa !7
  call void @InitDecodedCert_ex(ptr noundef %43, ptr noundef %44, i32 noundef %45, ptr noundef %46, i32 noundef %47)
  %48 = getelementptr inbounds [1 x %struct.DecodedCert], ptr %22, i64 0, i64 0
  %49 = call i32 @ParseCertRelative(ptr noundef %48, i32 noundef 0, i32 noundef 0, ptr noundef null, ptr noundef null)
  %50 = icmp ne i32 %49, 0
  br i1 %50, label %51, label %53

51:                                               ; preds = %36
  %52 = getelementptr inbounds [1 x %struct.DecodedCert], ptr %22, i64 0, i64 0
  call void @FreeDecodedCert(ptr noundef %52)
  store i32 0, ptr %11, align 4
  store i32 1, ptr %26, align 4
  br label %70

53:                                               ; preds = %36
  %54 = load ptr, ptr %13, align 8, !tbaa !37
  %55 = getelementptr inbounds nuw %struct.DerBuffer, ptr %54, i32 0, i32 2
  %56 = load i32, ptr %55, align 8, !tbaa !40
  store i32 %56, ptr %23, align 4, !tbaa !7
  %57 = load ptr, ptr %13, align 8, !tbaa !37
  %58 = getelementptr inbounds nuw %struct.DerBuffer, ptr %57, i32 0, i32 0
  %59 = load ptr, ptr %58, align 8, !tbaa !38
  store ptr %59, ptr %24, align 8, !tbaa !21
  %60 = load ptr, ptr %24, align 8, !tbaa !21
  %61 = load i32, ptr %23, align 4, !tbaa !7
  %62 = getelementptr inbounds [1 x %struct.DecodedCert], ptr %22, i64 0, i64 0
  %63 = load ptr, ptr %15, align 8, !tbaa !3
  %64 = call i32 @wc_CheckPrivateKeyCert(ptr noundef %60, i32 noundef %61, ptr noundef %62, i32 noundef 0, ptr noundef %63)
  store i32 %64, ptr %25, align 4, !tbaa !7
  %65 = load i32, ptr %25, align 4, !tbaa !7
  %66 = icmp eq i32 %65, 1
  %67 = select i1 %66, i32 1, i32 0
  store i32 %67, ptr %25, align 4, !tbaa !7
  %68 = getelementptr inbounds [1 x %struct.DecodedCert], ptr %22, i64 0, i64 0
  call void @FreeDecodedCert(ptr noundef %68)
  %69 = load i32, ptr %25, align 4, !tbaa !7
  store i32 %69, ptr %11, align 4
  store i32 1, ptr %26, align 4
  br label %70

70:                                               ; preds = %53, %51, %35
  call void @llvm.lifetime.end.p0(i64 4, ptr %25) #9
  call void @llvm.lifetime.end.p0(i64 8, ptr %24) #9
  call void @llvm.lifetime.end.p0(i64 4, ptr %23) #9
  call void @llvm.lifetime.end.p0(i64 1024, ptr %22) #9
  %71 = load i32, ptr %11, align 4
  ret i32 %71
}

; Function Attrs: nounwind uwtable
define i32 @wolfSSL_CTX_check_private_key(ptr noundef %0) #0 {
  %2 = alloca i32, align 4
  %3 = alloca ptr, align 8
  %4 = alloca i32, align 4
  %5 = alloca i32, align 4
  store ptr %0, ptr %3, align 8, !tbaa !24
  call void @llvm.lifetime.start.p0(i64 4, ptr %4) #9
  %6 = load ptr, ptr %3, align 8, !tbaa !24
  %7 = icmp eq ptr %6, null
  br i1 %7, label %8, label %9

8:                                                ; preds = %1
  store i32 0, ptr %2, align 4
  store i32 1, ptr %5, align 4
  br label %39

9:                                                ; preds = %1
  %10 = load ptr, ptr %3, align 8, !tbaa !24
  %11 = getelementptr inbounds nuw %struct.WOLFSSL_CTX, ptr %10, i32 0, i32 6
  %12 = load ptr, ptr %11, align 8, !tbaa !248
  %13 = load ptr, ptr %3, align 8, !tbaa !24
  %14 = getelementptr inbounds nuw %struct.WOLFSSL_CTX, ptr %13, i32 0, i32 10
  %15 = load ptr, ptr %14, align 8, !tbaa !249
  %16 = load ptr, ptr %3, align 8, !tbaa !24
  %17 = getelementptr inbounds nuw %struct.WOLFSSL_CTX, ptr %16, i32 0, i32 19
  %18 = load ptr, ptr %17, align 8, !tbaa !136
  %19 = load ptr, ptr %3, align 8, !tbaa !24
  %20 = getelementptr inbounds nuw %struct.WOLFSSL_CTX, ptr %19, i32 0, i32 15
  %21 = load i32, ptr %20, align 8, !tbaa !250
  %22 = load ptr, ptr %3, align 8, !tbaa !24
  %23 = getelementptr inbounds nuw %struct.WOLFSSL_CTX, ptr %22, i32 0, i32 12
  %24 = load i8, ptr %23, align 1
  %25 = lshr i8 %24, 1
  %26 = and i8 %25, 1
  %27 = zext i8 %26 to i32
  %28 = load ptr, ptr %3, align 8, !tbaa !24
  %29 = getelementptr inbounds nuw %struct.WOLFSSL_CTX, ptr %28, i32 0, i32 12
  %30 = load i8, ptr %29, align 1
  %31 = and i8 %30, 1
  %32 = zext i8 %31 to i32
  %33 = call i32 @check_cert_key(ptr noundef %12, ptr noundef %15, ptr noundef null, ptr noundef %18, i32 noundef %21, i32 noundef %27, i32 noundef %32, i32 noundef -2, i32 noundef 0, i32 noundef 0)
  store i32 %33, ptr %4, align 4, !tbaa !7
  %34 = load i32, ptr %4, align 4, !tbaa !7
  %35 = icmp ne i32 %34, 1
  br i1 %35, label %36, label %37

36:                                               ; preds = %9
  br label %37

37:                                               ; preds = %36, %9
  %38 = load i32, ptr %4, align 4, !tbaa !7
  store i32 %38, ptr %2, align 4
  store i32 1, ptr %5, align 4
  br label %39

39:                                               ; preds = %37, %8
  call void @llvm.lifetime.end.p0(i64 4, ptr %4) #9
  %40 = load i32, ptr %2, align 4
  ret i32 %40
}