; Function Attrs: nounwind uwtable
define range(i32 0, 2) i32 @wolfSSL_CTX_check_private_key(ptr noundef readonly captures(address_is_null) %0) local_unnamed_addr #0 {
  %2 = alloca [1 x %struct.DecodedCert], align 16
  %3 = icmp eq ptr %0, null
  br i1 %3, label %27, label %4

4:                                                ; preds = %1
  %5 = getelementptr inbounds nuw i8, ptr %0, i64 96
  %6 = load ptr, ptr %5, align 8, !tbaa !203
  %7 = getelementptr inbounds nuw i8, ptr %0, i64 120
  %8 = load ptr, ptr %7, align 8, !tbaa !196
  %9 = getelementptr inbounds nuw i8, ptr %0, i64 160
  %10 = load ptr, ptr %9, align 8, !tbaa !116
  %11 = getelementptr inbounds nuw i8, ptr %0, i64 136
  %12 = load i32, ptr %11, align 8, !tbaa !195
  call void @llvm.lifetime.start.p0(i64 1024, ptr nonnull %2) #22
  %13 = icmp eq ptr %6, null
  %14 = icmp eq ptr %8, null
  %or.cond.i = or i1 %13, %14
  br i1 %or.cond.i, label %check_cert_key.exit, label %15

15:                                               ; preds = %4
  %16 = getelementptr inbounds nuw i8, ptr %6, i64 16
  %17 = load i32, ptr %16, align 8, !tbaa !34
  %18 = load ptr, ptr %6, align 8, !tbaa !32
  call void @InitDecodedCert_ex(ptr noundef nonnull %2, ptr noundef %18, i32 noundef %17, ptr noundef %10, i32 noundef %12) #22
  %19 = call i32 @ParseCertRelative(ptr noundef nonnull %2, i32 noundef 0, i32 noundef 0, ptr noundef null, ptr noundef null) #22
  %.not.i = icmp eq i32 %19, 0
  br i1 %.not.i, label %20, label %.sink.split.i

20:                                               ; preds = %15
  %21 = getelementptr inbounds nuw i8, ptr %8, i64 16
  %22 = load i32, ptr %21, align 8, !tbaa !34
  %23 = load ptr, ptr %8, align 8, !tbaa !32
  %24 = call i32 @wc_CheckPrivateKeyCert(ptr noundef %23, i32 noundef %22, ptr noundef nonnull %2, i32 noundef 0, ptr noundef %10) #22
  %25 = icmp eq i32 %24, 1
  %26 = zext i1 %25 to i32
  br label %.sink.split.i

.sink.split.i:                                    ; preds = %20, %15
  %.0.ph.i = phi i32 [ %26, %20 ], [ 0, %15 ]
  call void @FreeDecodedCert(ptr noundef nonnull %2) #22
  br label %check_cert_key.exit

check_cert_key.exit:                              ; preds = %4, %.sink.split.i
  %.0.i = phi i32 [ 0, %4 ], [ %.0.ph.i, %.sink.split.i ]
  call void @llvm.lifetime.end.p0(i64 1024, ptr nonnull %2) #22
  br label %27

27:                                               ; preds = %1, %check_cert_key.exit
  %.0 = phi i32 [ %.0.i, %check_cert_key.exit ], [ 0, %1 ]
  ret i32 %.0
}